target datalayout = "e-m:e-p270:32:32-p271:32:32-p272:64:64-i64:64-i128:128-f80:128-n8:16:32:64-S128"
target triple = "x86_64-pc-linux-gnu"

%class.QList.31 = type { %struct.QArrayDataPointer.34 }
%struct.QArrayDataPointer.34 = type { ptr, ptr, i64 }
%class.QBasicAtomicInteger = type { %"struct.std::atomic" }
%"struct.std::atomic" = type { %"struct.std::__atomic_base" }
%"struct.std::__atomic_base" = type { i32 }
%struct.QArrayData = type { %class.QBasicAtomicInteger, %class.QFlags.130, i64 }
%class.QFlags.130 = type { i32 }

@_ZL20gbl_cur_main_window_ = internal global ptr null, align 8
@.str.612 = private unnamed_addr constant [11 x i8] c"extract_cb\00", align 1
@.str.613 = private unnamed_addr constant [10 x i8] c"user_data\00", align 1
@.str.614 = private unnamed_addr constant [14 x i8] c"ret_value_ptr\00", align 1

; Function Attrs: mustprogress nounwind uwtable
define linkonce_odr noundef i32 @_ZNSt13__atomic_baseIiEmmEv(ptr noundef nonnull align 4 dereferenceable(4) %0) #2 comdat align 2 {
  %2 = alloca ptr, align 8
  %3 = alloca i32, align 4
  %4 = alloca i32, align 4
  store ptr %0, ptr %2, align 8
  %5 = load ptr, ptr %2, align 8
  %6 = getelementptr inbounds %"struct.std::__atomic_base", ptr %5, i32 0, i32 0
  store i32 1, ptr %3, align 4
  %7 = load i32, ptr %3, align 4
  %8 = atomicrmw sub ptr %6, i32 %7 seq_cst, align 4
  %9 = sub i32 %8, %7
  store i32 %9, ptr %4, align 4
  %10 = load i32, ptr %4, align 4
  ret i32 %10
}

; Function Attrs: mustprogress nounwind uwtable
define linkonce_odr noundef zeroext i1 @_ZN10QAtomicOpsIiE5derefIiEEbRSt6atomicIT_E(ptr noundef nonnull align 4 dereferenceable(4) %0) #2 comdat align 2 {
  %2 = alloca ptr, align 8
  store ptr %0, ptr %2, align 8
  %3 = load ptr, ptr %2, align 8
  %4 = call noundef i32 @_ZNSt13__atomic_baseIiEmmEv(ptr noundef nonnull align 4 dereferenceable(4) %3) #20
  %5 = icmp ne i32 %4, 0
  ret i1 %5
}

; Function Attrs: mustprogress nounwind uwtable
define linkonce_odr noundef zeroext i1 @_ZN19QBasicAtomicIntegerIiE5derefEv(ptr noundef nonnull align 4 dereferenceable(4) %0) #2 comdat align 2 {
  %2 = alloca ptr, align 8
  store ptr %0, ptr %2, align 8
  %3 = load ptr, ptr %2, align 8
  %4 = getelementptr inbounds %class.QBasicAtomicInteger, ptr %3, i32 0, i32 0
  %5 = call noundef zeroext i1 @_ZN10QAtomicOpsIiE5derefIiEEbRSt6atomicIT_E(ptr noundef nonnull align 4 dereferenceable(4) %4) #20
  ret i1 %5
}

; Function Attrs: mustprogress nounwind uwtable
define linkonce_odr noundef zeroext i1 @_ZN10QArrayData5derefEv(ptr noundef nonnull align 8 dereferenceable(16) %0) #2 comdat align 2 {
  %2 = alloca ptr, align 8
  store ptr %0, ptr %2, align 8
  %3 = load ptr, ptr %2, align 8
  %4 = getelementptr inbounds %struct.QArrayData, ptr %3, i32 0, i32 0
  %5 = call noundef zeroext i1 @_ZN19QBasicAtomicIntegerIiE5derefEv(ptr noundef nonnull align 4 dereferenceable(4) %4) #20
  ret i1 %5
}

; Function Attrs: mustprogress nounwind uwtable
define linkonce_odr void @_ZN15QTypedArrayDataIiE10deallocateEP10QArrayData(ptr noundef %0) #2 comdat align 2 {
  %2 = alloca ptr, align 8
  store ptr %0, ptr %2, align 8
  %3 = load ptr, ptr %2, align 8
  call void @_ZN10QArrayData10deallocateEPS_xx(ptr noundef %3, i64 noundef 4, i64 noundef 8) #20
  ret void
}

; Function Attrs: mustprogress nounwind uwtable
define linkonce_odr void @_ZN9QtPrivate12QPodArrayOpsIiE10destroyAllEv(ptr noundef nonnull align 8 dereferenceable(24) %0) #2 comdat align 2 {
  %2 = alloca ptr, align 8
  store ptr %0, ptr %2, align 8
  ret void
}

; Function Attrs: mustprogress nounwind uwtable
define linkonce_odr noundef ptr @_ZN17QArrayDataPointerIiEptEv(ptr noundef nonnull align 8 dereferenceable(24) %0) #2 comdat align 2 {
  %2 = alloca ptr, align 8
  store ptr %0, ptr %2, align 8
  %3 = load ptr, ptr %2, align 8
  ret ptr %3
}

; Function Attrs: mustprogress nounwind uwtable
define linkonce_odr noundef zeroext i1 @_ZN17QArrayDataPointerIiE5derefEv(ptr noundef nonnull align 8 dereferenceable(24) %0) #2 comdat align 2 {
  %2 = alloca ptr, align 8
  store ptr %0, ptr %2, align 8
  %3 = load ptr, ptr %2, align 8
  %4 = getelementptr inbounds %struct.QArrayDataPointer.34, ptr %3, i32 0, i32 0
  %5 = load ptr, ptr %4, align 8
  %6 = icmp ne ptr %5, null
  br i1 %6, label %7, label %11

7:                                                ; preds = %1
  %8 = getelementptr inbounds %struct.QArrayDataPointer.34, ptr %3, i32 0, i32 0
  %9 = load ptr, ptr %8, align 8
  %10 = call noundef zeroext i1 @_ZN10QArrayData5derefEv(ptr noundef nonnull align 8 dereferenceable(16) %9) #20
  br label %11

11:                                               ; preds = %7, %1
  %12 = phi i1 [ true, %1 ], [ %10, %7 ]
  ret i1 %12
}

; Function Attrs: mustprogress nounwind uwtable
define linkonce_odr noundef ptr @_ZNK17QArrayDataPointerIiE4dataEv(ptr noundef nonnull align 8 dereferenceable(24) %0) #2 comdat align 2 {
  %2 = alloca ptr, align 8
  store ptr %0, ptr %2, align 8
  %3 = load ptr, ptr %2, align 8
  %4 = getelementptr inbounds %struct.QArrayDataPointer.34, ptr %3, i32 0, i32 1
  %5 = load ptr, ptr %4, align 8
  ret ptr %5
}

; Function Attrs: mustprogress nounwind uwtable
define linkonce_odr noundef ptr @_ZNK17QArrayDataPointerIiEptEv(ptr noundef nonnull align 8 dereferenceable(24) %0) #2 comdat align 2 {
  %2 = alloca ptr, align 8
  store ptr %0, ptr %2, align 8
  %3 = load ptr, ptr %2, align 8
  ret ptr %3
}

; Function Attrs: mustprogress nounwind uwtable
define linkonce_odr void @_ZN17QArrayDataPointerIiED2Ev(ptr noundef nonnull align 8 dereferenceable(24) %0) unnamed_addr #2 comdat align 2 {
  %2 = alloca ptr, align 8
  store ptr %0, ptr %2, align 8
  %3 = load ptr, ptr %2, align 8
  %4 = call noundef zeroext i1 @_ZN17QArrayDataPointerIiE5derefEv(ptr noundef nonnull align 8 dereferenceable(24) %3) #20
  br i1 %4, label %9, label %5

5:                                                ; preds = %1
  %6 = call noundef ptr @_ZN17QArrayDataPointerIiEptEv(ptr noundef nonnull align 8 dereferenceable(24) %3) #20
  call void @_ZN9QtPrivate12QPodArrayOpsIiE10destroyAllEv(ptr noundef nonnull align 8 dereferenceable(24) %6) #20
  %7 = getelementptr inbounds %struct.QArrayDataPointer.34, ptr %3, i32 0, i32 0
  %8 = load ptr, ptr %7, align 8
  call void @_ZN15QTypedArrayDataIiE10deallocateEP10QArrayData(ptr noundef %8) #20
  br label %9

9:                                                ; preds = %5, %1
  ret void
}

; Function Attrs: mustprogress nounwind uwtable
define linkonce_odr noundef ptr @_ZNK5QListIiE4dataEv(ptr noundef nonnull align 8 dereferenceable(24) %0) #2 comdat align 2 {
  %2 = alloca ptr, align 8
  store ptr %0, ptr %2, align 8
  %3 = load ptr, ptr %2, align 8
  %4 = getelementptr inbounds %class.QList.31, ptr %3, i32 0, i32 0
  %5 = call noundef ptr @_ZNK17QArrayDataPointerIiEptEv(ptr noundef nonnull align 8 dereferenceable(24) %4) #20
  %6 = call noundef ptr @_ZNK17QArrayDataPointerIiE4dataEv(ptr noundef nonnull align 8 dereferenceable(24) %5) #20
  ret ptr %6
}

; Function Attrs: mustprogress nounwind uwtable
define linkonce_odr noundef i64 @_ZNK5QListIiE4sizeEv(ptr noundef nonnull align 8 dereferenceable(24) %0) #2 comdat align 2 {
  %2 = alloca ptr, align 8
  store ptr %0, ptr %2, align 8
  %3 = load ptr, ptr %2, align 8
  %4 = getelementptr inbounds %class.QList.31, ptr %3, i32 0, i32 0
  %5 = call noundef ptr @_ZNK17QArrayDataPointerIiEptEv(ptr noundef nonnull align 8 dereferenceable(24) %4) #20
  %6 = getelementptr inbounds %struct.QArrayDataPointer.34, ptr %5, i32 0, i32 2
  %7 = load i64, ptr %6, align 8
  ret i64 %7
}

; Function Attrs: mustprogress nounwind uwtable
define linkonce_odr void @_ZN5QListIiED2Ev(ptr noundef nonnull align 8 dereferenceable(24) %0) unnamed_addr #2 comdat align 2 {
  %2 = alloca ptr, align 8
  store ptr %0, ptr %2, align 8
  %3 = load ptr, ptr %2, align 8
  %4 = getelementptr inbounds %class.QList.31, ptr %3, i32 0, i32 0
  call void @_ZN17QArrayDataPointerIiED2Ev(ptr noundef nonnull align 8 dereferenceable(24) %4) #20
  ret void
}

; Function Attrs: mustprogress nounwind uwtable
define linkonce_odr noundef nonnull align 4 dereferenceable(4) ptr @_ZNK5QListIiE2atEx(ptr noundef nonnull align 8 dereferenceable(24) %0, i64 noundef %1) #2 comdat align 2 {
  %3 = alloca ptr, align 8
  %4 = alloca i64, align 8
  store ptr %0, ptr %3, align 8
  store i64 %1, ptr %4, align 8
  %5 = load ptr, ptr %3, align 8
  %6 = call noundef ptr @_ZNK5QListIiE4dataEv(ptr noundef nonnull align 8 dereferenceable(24) %5) #20
  %7 = load i64, ptr %4, align 8
  %8 = getelementptr i32, ptr %6, i64 %7
  ret ptr %8
}

; Function Attrs: mustprogress nounwind uwtable
define linkonce_odr noundef i64 @_ZNK5QListIiE5countEv(ptr noundef nonnull align 8 dereferenceable(24) %0) #2 comdat align 2 {
  %2 = alloca ptr, align 8
  store ptr %0, ptr %2, align 8
  %3 = load ptr, ptr %2, align 8
  %4 = call noundef i64 @_ZNK5QListIiE4sizeEv(ptr noundef nonnull align 8 dereferenceable(24) %3) #20
  ret i64 %4
}

; Function Attrs: mustprogress uwtable
define internal void @_ZL35plugin_if_mainwindow_get_frame_dataP11_GHashTable(ptr noundef %0) #0 personality ptr @__gxx_personality_v0 {
  %2 = alloca ptr, align 8
  %3 = alloca ptr, align 8
  %4 = alloca ptr, align 8
  %5 = alloca ptr, align 8
  %6 = alloca %class.QList.31, align 8
  %7 = alloca ptr, align 8
  %8 = alloca ptr, align 8
  %9 = alloca i32, align 4
  store ptr %0, ptr %2, align 8
  %10 = load ptr, ptr @_ZL20gbl_cur_main_window_, align 8
  %11 = icmp ne ptr %10, null
  br i1 %11, label %12, label %15

12:                                               ; preds = %1
  %13 = load ptr, ptr %2, align 8
  %14 = icmp ne ptr %13, null
  br i1 %14, label %16, label %15

15:                                               ; preds = %12, %1
  br label %53

16:                                               ; preds = %12
  %17 = load ptr, ptr %2, align 8
  %18 = call i32 @g_hash_table_lookup_extended(ptr noundef %17, ptr noundef @.str.612, ptr noundef null, ptr noundef %3)
  %19 = icmp ne i32 %18, 0
  br i1 %19, label %20, label %53

20:                                               ; preds = %16
  %21 = load ptr, ptr %2, align 8
  %22 = call i32 @g_hash_table_lookup_extended(ptr noundef %21, ptr noundef @.str.613, ptr noundef null, ptr noundef %4)
  %23 = icmp ne i32 %22, 0
  br i1 %23, label %24, label %53

24:                                               ; preds = %20
  %25 = load ptr, ptr %2, align 8
  %26 = call i32 @g_hash_table_lookup_extended(ptr noundef %25, ptr noundef @.str.614, ptr noundef null, ptr noundef %5)
  %27 = icmp ne i32 %26, 0
  br i1 %27, label %28, label %53

28:                                               ; preds = %24
  %29 = load ptr, ptr @_ZL20gbl_cur_main_window_, align 8
  call void @_ZN10MainWindow12selectedRowsEb(ptr dead_on_unwind writable sret(%class.QList.31) align 8 %6, ptr noundef nonnull align 8 dereferenceable(272) %29, i1 noundef zeroext false)
  %30 = call noundef i64 @_ZNK5QListIiE5countEv(ptr noundef nonnull align 8 dereferenceable(24) %6) #20
  %31 = icmp sgt i64 %30, 0
  br i1 %31, label %32, label %52

32:                                               ; preds = %28
  %33 = load ptr, ptr @_ZL20gbl_cur_main_window_, align 8
  %34 = call noundef nonnull align 4 dereferenceable(4) ptr @_ZNK5QListIiE2atEx(ptr noundef nonnull align 8 dereferenceable(24) %6, i64 noundef 0) #20
  %35 = load i32, ptr %34, align 4
  %36 = invoke noundef ptr @_ZNK10MainWindow15frameDataForRowEi(ptr noundef nonnull align 8 dereferenceable(272) %33, i32 noundef %35)
          to label %37 unwind label %47

37:                                               ; preds = %32
  store ptr %36, ptr %7, align 8
  %38 = load ptr, ptr %7, align 8
  %39 = icmp ne ptr %38, null
  br i1 %39, label %40, label %51

40:                                               ; preds = %37
  %41 = load ptr, ptr %3, align 8
  %42 = load ptr, ptr %7, align 8
  %43 = load ptr, ptr %4, align 8
  %44 = invoke noundef ptr %41(ptr noundef %42, ptr noundef %43)
          to label %45 unwind label %47

45:                                               ; preds = %40
  %46 = load ptr, ptr %5, align 8
  store ptr %44, ptr %46, align 8
  br label %51

47:                                               ; preds = %40, %32
  %48 = landingpad { ptr, i32 }
          cleanup
  %49 = extractvalue { ptr, i32 } %48, 0
  store ptr %49, ptr %8, align 8
  %50 = extractvalue { ptr, i32 } %48, 1
  store i32 %50, ptr %9, align 4
  call void @_ZN5QListIiED2Ev(ptr noundef nonnull align 8 dereferenceable(24) %6) #20
  br label %54

51:                                               ; preds = %45, %37
  br label %52

52:                                               ; preds = %51, %28
  call void @_ZN5QListIiED2Ev(ptr noundef nonnull align 8 dereferenceable(24) %6) #20
  br label %53

53:                                               ; preds = %52, %24, %20, %16, %15
  ret void

54:                                               ; preds = %47
  %55 = load ptr, ptr %8, align 8
  %56 = load i32, ptr %9, align 4
  %57 = insertvalue { ptr, i32 } poison, ptr %55, 0
  %58 = insertvalue { ptr, i32 } %57, i32 %56, 1
  resume { ptr, i32 } %58
}