; Function Attrs: mustprogress uwtable
define internal void @_ZL35plugin_if_mainwindow_get_frame_dataP11_GHashTable(ptr noundef %0) #0 personality ptr @__gxx_personality_v0 {
  %2 = alloca ptr, align 8
  %3 = alloca ptr, align 8
  %4 = alloca ptr, align 8
  %5 = alloca %class.QList.31, align 8
  %6 = load ptr, ptr @_ZL20gbl_cur_main_window_, align 8
  %7 = icmp ne ptr %6, null
  %8 = icmp ne ptr %0, null
  %or.cond = and i1 %8, %7
  br i1 %or.cond, label %9, label %_ZN5QListIiED2Ev.exit15

9:                                                ; preds = %1
  %10 = call i32 @g_hash_table_lookup_extended(ptr noundef nonnull %0, ptr noundef nonnull @.str.612, ptr noundef null, ptr noundef nonnull %2)
  %.not = icmp eq i32 %10, 0
  br i1 %.not, label %_ZN5QListIiED2Ev.exit15, label %11

11:                                               ; preds = %9
  %12 = call i32 @g_hash_table_lookup_extended(ptr noundef nonnull %0, ptr noundef nonnull @.str.613, ptr noundef null, ptr noundef nonnull %3)
  %.not9 = icmp eq i32 %12, 0
  br i1 %.not9, label %_ZN5QListIiED2Ev.exit15, label %13

13:                                               ; preds = %11
  %14 = call i32 @g_hash_table_lookup_extended(ptr noundef nonnull %0, ptr noundef nonnull @.str.614, ptr noundef null, ptr noundef nonnull %4)
  %.not10 = icmp eq i32 %14, 0
  br i1 %.not10, label %_ZN5QListIiED2Ev.exit15, label %15

15:                                               ; preds = %13
  %16 = load ptr, ptr @_ZL20gbl_cur_main_window_, align 8
  call void @_ZN10MainWindow12selectedRowsEb(ptr dead_on_unwind nonnull writable sret(%class.QList.31) align 8 %5, ptr noundef nonnull align 8 dereferenceable(272) %16, i1 noundef zeroext false)
  %17 = getelementptr inbounds i8, ptr %5, i64 16
  %18 = load i64, ptr %17, align 8
  %19 = icmp sgt i64 %18, 0
  br i1 %19, label %20, label %39

20:                                               ; preds = %15
  %21 = load ptr, ptr @_ZL20gbl_cur_main_window_, align 8
  %22 = getelementptr inbounds i8, ptr %5, i64 8
  %23 = load ptr, ptr %22, align 8
  %24 = load i32, ptr %23, align 4
  %25 = invoke noundef ptr @_ZNK10MainWindow15frameDataForRowEi(ptr noundef nonnull align 8 dereferenceable(272) %21, i32 noundef %24)
          to label %26 unwind label %33

26:                                               ; preds = %20
  %.not11 = icmp eq ptr %25, null
  br i1 %.not11, label %39, label %27

27:                                               ; preds = %26
  %28 = load ptr, ptr %2, align 8
  %29 = load ptr, ptr %3, align 8
  %30 = invoke noundef ptr %28(ptr noundef nonnull %25, ptr noundef %29)
          to label %31 unwind label %33

31:                                               ; preds = %27
  %32 = load ptr, ptr %4, align 8
  store ptr %30, ptr %32, align 8
  br label %39

33:                                               ; preds = %27, %20
  %34 = landingpad { ptr, i32 }
          cleanup
  %35 = load ptr, ptr %5, align 8
  %.not.i.i.i = icmp eq ptr %35, null
  br i1 %.not.i.i.i, label %_ZN5QListIiED2Ev.exit, label %_ZN17QArrayDataPointerIiE5derefEv.exit.i.i

_ZN17QArrayDataPointerIiE5derefEv.exit.i.i:       ; preds = %33
  %36 = atomicrmw sub ptr %35, i32 1 seq_cst, align 4
  %.not.i.i = icmp eq i32 %36, 1
  br i1 %.not.i.i, label %37, label %_ZN5QListIiED2Ev.exit

37:                                               ; preds = %_ZN17QArrayDataPointerIiE5derefEv.exit.i.i
  %38 = load ptr, ptr %5, align 8
  call void @_ZN10QArrayData10deallocateEPS_xx(ptr noundef %38, i64 noundef 4, i64 noundef 8) #25
  br label %_ZN5QListIiED2Ev.exit

_ZN5QListIiED2Ev.exit:                            ; preds = %33, %_ZN17QArrayDataPointerIiE5derefEv.exit.i.i, %37
  resume { ptr, i32 } %34

39:                                               ; preds = %26, %31, %15
  %40 = load ptr, ptr %5, align 8
  %.not.i.i.i12 = icmp eq ptr %40, null
  br i1 %.not.i.i.i12, label %_ZN5QListIiED2Ev.exit15, label %_ZN17QArrayDataPointerIiE5derefEv.exit.i.i13

_ZN17QArrayDataPointerIiE5derefEv.exit.i.i13:     ; preds = %39
  %41 = atomicrmw sub ptr %40, i32 1 seq_cst, align 4
  %.not.i.i14 = icmp eq i32 %41, 1
  br i1 %.not.i.i14, label %42, label %_ZN5QListIiED2Ev.exit15

42:                                               ; preds = %_ZN17QArrayDataPointerIiE5derefEv.exit.i.i13
  %43 = load ptr, ptr %5, align 8
  call void @_ZN10QArrayData10deallocateEPS_xx(ptr noundef %43, i64 noundef 4, i64 noundef 8) #25
  br label %_ZN5QListIiED2Ev.exit15

_ZN5QListIiED2Ev.exit15:                          ; preds = %42, %_ZN17QArrayDataPointerIiE5derefEv.exit.i.i13, %39, %1, %13, %11, %9
  ret void
}